target datalayout = "e-m:e-p270:32:32-p271:32:32-p272:64:64-i64:64-i128:128-f80:128-n8:16:32:64-S128"
target triple = "x86_64-pc-linux-gnu"

%struct.AVFilterFormats = type { i32, ptr, i32, ptr }
%struct.AVPixFmtDescriptor = type { ptr, i8, i8, i8, i64, [4 x %struct.AVComponentDescriptor], ptr }
%struct.AVComponentDescriptor = type { i32, i32, i32, i32, i32 }

@.str = private unnamed_addr constant [30 x i8] c"Assertion %s failed at %s:%d\0A\00", align 1
@.str.1 = private unnamed_addr constant [34 x i8] c"formats->nb_formats == nb_formats\00", align 1
@.str.2 = private unnamed_addr constant [22 x i8] c"libavfilter/formats.c\00", align 1

; Function Attrs: nounwind uwtable
define ptr @ff_formats_pixdesc_filter(i32 noundef %0, i32 noundef %1) #0 {
  %3 = alloca ptr, align 8
  %4 = alloca i32, align 4
  %5 = alloca i32, align 4
  %6 = alloca i32, align 4
  %7 = alloca i32, align 4
  %8 = alloca i32, align 4
  %9 = alloca ptr, align 8
  %10 = alloca ptr, align 8
  %11 = alloca i32, align 4
  store i32 %0, ptr %4, align 4, !tbaa !21
  store i32 %1, ptr %5, align 4, !tbaa !21
  call void @llvm.lifetime.start.p0(i64 4, ptr %6) #7
  call void @llvm.lifetime.start.p0(i64 4, ptr %7) #7
  call void @llvm.lifetime.start.p0(i64 4, ptr %8) #7
  call void @llvm.lifetime.start.p0(i64 8, ptr %9) #7
  store ptr null, ptr %9, align 8, !tbaa !27
  br label %12

12:                                               ; preds = %118, %2
  br label %13

13:                                               ; preds = %12
  store i32 0, ptr %6, align 4, !tbaa !21
  store i32 0, ptr %7, align 4, !tbaa !21
  br label %14

14:                                               ; preds = %77, %13
  call void @llvm.lifetime.start.p0(i64 8, ptr %10) #7
  %15 = load i32, ptr %7, align 4, !tbaa !21
  %16 = call ptr @av_pix_fmt_desc_get(i32 noundef %15)
  store ptr %16, ptr %10, align 8, !tbaa !59
  %17 = load ptr, ptr %10, align 8, !tbaa !59
  %18 = icmp ne ptr %17, null
  br i1 %18, label %20, label %19

19:                                               ; preds = %14
  store i32 4, ptr %11, align 4
  br label %74

20:                                               ; preds = %14
  %21 = load ptr, ptr %10, align 8, !tbaa !59
  %22 = getelementptr inbounds nuw %struct.AVPixFmtDescriptor, ptr %21, i32 0, i32 4
  %23 = load i64, ptr %22, align 8, !tbaa !61
  %24 = trunc i64 %23 to i32
  store i32 %24, ptr %8, align 4, !tbaa !21
  %25 = load ptr, ptr %10, align 8, !tbaa !59
  %26 = getelementptr inbounds nuw %struct.AVPixFmtDescriptor, ptr %25, i32 0, i32 4
  %27 = load i64, ptr %26, align 8, !tbaa !61
  %28 = and i64 %27, 8
  %29 = icmp ne i64 %28, 0
  br i1 %29, label %51, label %30

30:                                               ; preds = %20
  %31 = load ptr, ptr %10, align 8, !tbaa !59
  %32 = getelementptr inbounds nuw %struct.AVPixFmtDescriptor, ptr %31, i32 0, i32 4
  %33 = load i64, ptr %32, align 8, !tbaa !61
  %34 = and i64 %33, 16
  %35 = icmp ne i64 %34, 0
  br i1 %35, label %51, label %36

36:                                               ; preds = %30
  %37 = load ptr, ptr %10, align 8, !tbaa !59
  %38 = getelementptr inbounds nuw %struct.AVPixFmtDescriptor, ptr %37, i32 0, i32 2
  %39 = load i8, ptr %38, align 1, !tbaa !64
  %40 = zext i8 %39 to i32
  %41 = icmp ne i32 %40, 0
  br i1 %41, label %48, label %42

42:                                               ; preds = %36
  %43 = load ptr, ptr %10, align 8, !tbaa !59
  %44 = getelementptr inbounds nuw %struct.AVPixFmtDescriptor, ptr %43, i32 0, i32 3
  %45 = load i8, ptr %44, align 2, !tbaa !65
  %46 = zext i8 %45 to i32
  %47 = icmp ne i32 %46, 0
  br i1 %47, label %48, label %51

48:                                               ; preds = %42, %36
  %49 = load i32, ptr %8, align 4, !tbaa !21
  %50 = or i32 %49, 16777216
  store i32 %50, ptr %8, align 4, !tbaa !21
  br label %51

51:                                               ; preds = %48, %42, %30, %20
  %52 = load i32, ptr %8, align 4, !tbaa !21
  %53 = load i32, ptr %4, align 4, !tbaa !21
  %54 = load i32, ptr %5, align 4, !tbaa !21
  %55 = or i32 %53, %54
  %56 = and i32 %52, %55
  %57 = load i32, ptr %4, align 4, !tbaa !21
  %58 = icmp ne i32 %56, %57
  br i1 %58, label %59, label %60

59:                                               ; preds = %51
  store i32 6, ptr %11, align 4
  br label %74

60:                                               ; preds = %51
  %61 = load ptr, ptr %9, align 8, !tbaa !27
  %62 = icmp ne ptr %61, null
  br i1 %62, label %63, label %71

63:                                               ; preds = %60
  %64 = load i32, ptr %7, align 4, !tbaa !21
  %65 = load ptr, ptr %9, align 8, !tbaa !27
  %66 = getelementptr inbounds nuw %struct.AVFilterFormats, ptr %65, i32 0, i32 1
  %67 = load ptr, ptr %66, align 8, !tbaa !32
  %68 = load i32, ptr %6, align 4, !tbaa !21
  %69 = zext i32 %68 to i64
  %70 = getelementptr inbounds nuw i32, ptr %67, i64 %69
  store i32 %64, ptr %70, align 4, !tbaa !21
  br label %71

71:                                               ; preds = %63, %60
  %72 = load i32, ptr %6, align 4, !tbaa !21
  %73 = add i32 %72, 1
  store i32 %73, ptr %6, align 4, !tbaa !21
  store i32 0, ptr %11, align 4
  br label %74

74:                                               ; preds = %71, %59, %19
  call void @llvm.lifetime.end.p0(i64 8, ptr %10) #7
  %75 = load i32, ptr %11, align 4
  switch i32 %75, label %121 [
    i32 0, label %76
    i32 4, label %80
    i32 6, label %77
  ]

76:                                               ; preds = %74
  br label %77

77:                                               ; preds = %76, %74
  %78 = load i32, ptr %7, align 4, !tbaa !21
  %79 = add i32 %78, 1
  store i32 %79, ptr %7, align 4, !tbaa !21
  br label %14

80:                                               ; preds = %74
  %81 = load ptr, ptr %9, align 8, !tbaa !27
  %82 = icmp ne ptr %81, null
  br i1 %82, label %83, label %95

83:                                               ; preds = %80
  br label %84

84:                                               ; preds = %83
  %85 = load ptr, ptr %9, align 8, !tbaa !27
  %86 = getelementptr inbounds nuw %struct.AVFilterFormats, ptr %85, i32 0, i32 0
  %87 = load i32, ptr %86, align 8, !tbaa !28
  %88 = load i32, ptr %6, align 4, !tbaa !21
  %89 = icmp eq i32 %87, %88
  br i1 %89, label %91, label %90

90:                                               ; preds = %84
  call void (ptr, i32, ptr, ...) @av_log(ptr noundef null, i32 noundef 0, ptr noundef @.str, ptr noundef @.str.1, ptr noundef @.str.2, i32 noundef 577)
  call void @abort() #8
  unreachable

91:                                               ; preds = %84
  br label %92

92:                                               ; preds = %91
  br label %93

93:                                               ; preds = %92
  %94 = load ptr, ptr %9, align 8, !tbaa !27
  store ptr %94, ptr %3, align 8
  store i32 1, ptr %11, align 4
  br label %119

95:                                               ; preds = %80
  %96 = call noalias ptr @av_mallocz(i64 noundef 32)
  store ptr %96, ptr %9, align 8, !tbaa !27
  %97 = load ptr, ptr %9, align 8, !tbaa !27
  %98 = icmp ne ptr %97, null
  br i1 %98, label %100, label %99

99:                                               ; preds = %95
  store ptr null, ptr %3, align 8
  store i32 1, ptr %11, align 4
  br label %119

100:                                              ; preds = %95
  %101 = load i32, ptr %6, align 4, !tbaa !21
  %102 = load ptr, ptr %9, align 8, !tbaa !27
  %103 = getelementptr inbounds nuw %struct.AVFilterFormats, ptr %102, i32 0, i32 0
  store i32 %101, ptr %103, align 8, !tbaa !28
  %104 = load i32, ptr %6, align 4, !tbaa !21
  %105 = icmp ne i32 %104, 0
  br i1 %105, label %106, label %118

106:                                              ; preds = %100
  %107 = load i32, ptr %6, align 4, !tbaa !21
  %108 = zext i32 %107 to i64
  %109 = call ptr @av_malloc_array(i64 noundef %108, i64 noundef 4)
  %110 = load ptr, ptr %9, align 8, !tbaa !27
  %111 = getelementptr inbounds nuw %struct.AVFilterFormats, ptr %110, i32 0, i32 1
  store ptr %109, ptr %111, align 8, !tbaa !32
  %112 = load ptr, ptr %9, align 8, !tbaa !27
  %113 = getelementptr inbounds nuw %struct.AVFilterFormats, ptr %112, i32 0, i32 1
  %114 = load ptr, ptr %113, align 8, !tbaa !32
  %115 = icmp ne ptr %114, null
  br i1 %115, label %117, label %116

116:                                              ; preds = %106
  call void @av_freep(ptr noundef %9)
  store ptr null, ptr %3, align 8
  store i32 1, ptr %11, align 4
  br label %119

117:                                              ; preds = %106
  br label %118

118:                                              ; preds = %117, %100
  br label %12

119:                                              ; preds = %116, %99, %93
  call void @llvm.lifetime.end.p0(i64 8, ptr %9) #7
  call void @llvm.lifetime.end.p0(i64 4, ptr %8) #7
  call void @llvm.lifetime.end.p0(i64 4, ptr %7) #7
  call void @llvm.lifetime.end.p0(i64 4, ptr %6) #7
  %120 = load ptr, ptr %3, align 8
  ret ptr %120

121:                                              ; preds = %74
  unreachable
}