; Function Attrs: nounwind uwtable
define noundef ptr @ff_formats_pixdesc_filter(i32 noundef %0, i32 noundef %1) local_unnamed_addr #3 {
  %3 = alloca ptr, align 8
  call void @llvm.lifetime.start.p0(i64 8, ptr nonnull %3) #10
  %4 = or i32 %1, %0
  %.promoted = load ptr, ptr %3, align 8
  br label %5

5:                                                ; preds = %.backedge, %2
  %6 = phi ptr [ %.promoted, %2 ], [ %56, %.backedge ]
  %7 = phi ptr [ null, %2 ], [ %56, %.backedge ]
  %.fr = freeze ptr %7
  %8 = tail call ptr @av_pix_fmt_desc_get(i32 noundef 0) #10
  %.not48 = icmp eq ptr %8, null
  br i1 %.not48, label %._crit_edge, label %.lr.ph

.lr.ph:                                           ; preds = %5
  %.not34 = icmp eq ptr %.fr, null
  %9 = getelementptr inbounds nuw i8, ptr %.fr, i64 8
  br i1 %.not34, label %.lr.ph.split.us, label %.lr.ph.split

.lr.ph.split.us:                                  ; preds = %.lr.ph, %23
  %10 = phi ptr [ %27, %23 ], [ %8, %.lr.ph ]
  %.02350.us = phi i32 [ %26, %23 ], [ 0, %.lr.ph ]
  %.02449.us = phi i32 [ %spec.select, %23 ], [ 0, %.lr.ph ]
  %11 = getelementptr inbounds nuw i8, ptr %10, i64 16
  %12 = load i64, ptr %11, align 8, !tbaa !53
  %13 = trunc i64 %12 to i32
  %14 = and i64 %12, 24
  %or.cond.us = icmp eq i64 %14, 0
  br i1 %or.cond.us, label %15, label %23

15:                                               ; preds = %.lr.ph.split.us
  %16 = getelementptr inbounds nuw i8, ptr %10, i64 9
  %17 = load i8, ptr %16, align 1, !tbaa !57
  %.not31.us = icmp eq i8 %17, 0
  br i1 %.not31.us, label %18, label %21

18:                                               ; preds = %15
  %19 = getelementptr inbounds nuw i8, ptr %10, i64 10
  %20 = load i8, ptr %19, align 2, !tbaa !58
  %.not32.us = icmp eq i8 %20, 0
  br i1 %.not32.us, label %23, label %21

21:                                               ; preds = %18, %15
  %22 = or i32 %13, 16777216
  br label %23

23:                                               ; preds = %21, %18, %.lr.ph.split.us
  %.022.us = phi i32 [ %13, %.lr.ph.split.us ], [ %22, %21 ], [ %13, %18 ]
  %24 = and i32 %.022.us, %4
  %.not33.us = icmp eq i32 %24, %0
  %25 = zext i1 %.not33.us to i32
  %spec.select = add i32 %.02449.us, %25
  %26 = add i32 %.02350.us, 1
  %27 = tail call ptr @av_pix_fmt_desc_get(i32 noundef %26) #10
  %.not.us = icmp eq ptr %27, null
  br i1 %.not.us, label %._crit_edge, label %.lr.ph.split.us

.lr.ph.split:                                     ; preds = %.lr.ph, %48
  %28 = phi ptr [ %50, %48 ], [ %8, %.lr.ph ]
  %.02350 = phi i32 [ %49, %48 ], [ 0, %.lr.ph ]
  %.02449 = phi i32 [ %.1.ph, %48 ], [ 0, %.lr.ph ]
  %29 = getelementptr inbounds nuw i8, ptr %28, i64 16
  %30 = load i64, ptr %29, align 8, !tbaa !53
  %31 = trunc i64 %30 to i32
  %32 = and i64 %30, 24
  %or.cond = icmp eq i64 %32, 0
  br i1 %or.cond, label %33, label %41

33:                                               ; preds = %.lr.ph.split
  %34 = getelementptr inbounds nuw i8, ptr %28, i64 9
  %35 = load i8, ptr %34, align 1, !tbaa !57
  %.not31 = icmp eq i8 %35, 0
  br i1 %.not31, label %36, label %39

36:                                               ; preds = %33
  %37 = getelementptr inbounds nuw i8, ptr %28, i64 10
  %38 = load i8, ptr %37, align 2, !tbaa !58
  %.not32 = icmp eq i8 %38, 0
  br i1 %.not32, label %41, label %39

39:                                               ; preds = %36, %33
  %40 = or i32 %31, 16777216
  br label %41

41:                                               ; preds = %39, %36, %.lr.ph.split
  %.022 = phi i32 [ %31, %.lr.ph.split ], [ %40, %39 ], [ %31, %36 ]
  %42 = and i32 %.022, %4
  %.not33 = icmp eq i32 %42, %0
  br i1 %.not33, label %43, label %48

43:                                               ; preds = %41
  %44 = load ptr, ptr %9, align 8, !tbaa !29
  %45 = zext i32 %.02449 to i64
  %46 = getelementptr inbounds nuw i32, ptr %44, i64 %45
  store i32 %.02350, ptr %46, align 4, !tbaa !19
  %47 = add i32 %.02449, 1
  br label %48

48:                                               ; preds = %43, %41
  %.1.ph = phi i32 [ %.02449, %41 ], [ %47, %43 ]
  %49 = add i32 %.02350, 1
  %50 = tail call ptr @av_pix_fmt_desc_get(i32 noundef %49) #10
  %.not = icmp eq ptr %50, null
  br i1 %.not, label %._crit_edge, label %.lr.ph.split

._crit_edge:                                      ; preds = %48, %23, %5
  %.024.lcssa = phi i32 [ 0, %5 ], [ %spec.select, %23 ], [ %.1.ph, %48 ]
  %.not35 = icmp eq ptr %.fr, null
  br i1 %.not35, label %55, label %51

51:                                               ; preds = %._crit_edge
  store ptr %6, ptr %3, align 8
  %52 = load i32, ptr %.fr, align 8, !tbaa !24
  %53 = icmp eq i32 %52, %.024.lcssa
  br i1 %53, label %.loopexit, label %54

54:                                               ; preds = %51
  tail call void (ptr, i32, ptr, ...) @av_log(ptr noundef null, i32 noundef 0, ptr noundef nonnull @.str, ptr noundef nonnull @.str.1, ptr noundef nonnull @.str.2, i32 noundef 577) #10
  tail call void @abort() #11
  unreachable

55:                                               ; preds = %._crit_edge
  %56 = tail call noalias ptr @av_mallocz(i64 noundef 32) #10
  %.not36 = icmp eq ptr %56, null
  br i1 %.not36, label %.loopexit.loopexit, label %57

57:                                               ; preds = %55
  store i32 %.024.lcssa, ptr %56, align 8, !tbaa !24
  %.not37 = icmp eq i32 %.024.lcssa, 0
  br i1 %.not37, label %.backedge, label %58

58:                                               ; preds = %57
  %59 = zext i32 %.024.lcssa to i64
  %60 = tail call ptr @av_malloc_array(i64 noundef %59, i64 noundef 4) #10
  %61 = getelementptr inbounds nuw i8, ptr %56, i64 8
  store ptr %60, ptr %61, align 8, !tbaa !29
  %.not38 = icmp eq ptr %60, null
  br i1 %.not38, label %62, label %.backedge

.backedge:                                        ; preds = %58, %57
  br label %5

62:                                               ; preds = %58
  store ptr %56, ptr %3, align 8
  call void @av_freep(ptr noundef nonnull %3) #10
  br label %.loopexit

.loopexit.loopexit:                               ; preds = %55
  store ptr %56, ptr %3, align 8
  br label %.loopexit

.loopexit:                                        ; preds = %.loopexit.loopexit, %51, %62
  call void @llvm.lifetime.end.p0(i64 8, ptr nonnull %3) #10
  ret ptr %.fr
}